; Function Attrs: nounwind uwtable
define void @Ssw_ClassesCollectClass(ptr noundef readonly captures(none) %0, ptr noundef readonly captures(none) %1, ptr noundef captures(none) initializes((4, 8)) %2) local_unnamed_addr #0 {
  %4 = getelementptr inbounds nuw i8, ptr %2, i64 4
  store i32 0, ptr %4, align 4, !tbaa !24
  %5 = getelementptr inbounds nuw i8, ptr %0, i64 8
  %6 = load ptr, ptr %5, align 8, !tbaa !26
  %7 = getelementptr inbounds nuw i8, ptr %1, i64 36
  %8 = load i32, ptr %7, align 4, !tbaa !42
  %9 = sext i32 %8 to i64
  %10 = getelementptr inbounds ptr, ptr %6, i64 %9
  %11 = load ptr, ptr %10, align 8, !tbaa !43
  %12 = icmp eq ptr %11, null
  br i1 %12, label %.loopexit, label %.preheader

.preheader:                                       ; preds = %3
  %13 = getelementptr inbounds nuw i8, ptr %0, i64 16
  %14 = load ptr, ptr %13, align 8, !tbaa !27
  %15 = getelementptr inbounds i32, ptr %14, i64 %9
  %16 = load i32, ptr %15, align 4, !tbaa !44
  %17 = icmp sgt i32 %16, 1
  br i1 %17, label %.lr.ph, label %.loopexit

.lr.ph:                                           ; preds = %.preheader
  %.phi.trans.insert.i = getelementptr inbounds nuw i8, ptr %2, i64 8
  %.pre = load i32, ptr %2, align 8, !tbaa !28
  br label %18

18:                                               ; preds = %.lr.ph, %Vec_PtrPush.exit
  %19 = phi i32 [ %.pre, %.lr.ph ], [ %48, %Vec_PtrPush.exit ]
  %20 = phi i32 [ 0, %.lr.ph ], [ %51, %Vec_PtrPush.exit ]
  %indvars.iv = phi i64 [ 1, %.lr.ph ], [ %indvars.iv.next, %Vec_PtrPush.exit ]
  %21 = phi i64 [ %9, %.lr.ph ], [ %56, %Vec_PtrPush.exit ]
  %22 = load ptr, ptr %5, align 8, !tbaa !26
  %23 = getelementptr inbounds ptr, ptr %22, i64 %21
  %24 = load ptr, ptr %23, align 8, !tbaa !43
  %25 = getelementptr inbounds nuw ptr, ptr %24, i64 %indvars.iv
  %26 = load ptr, ptr %25, align 8, !tbaa !45
  %27 = icmp eq i32 %20, %19
  br i1 %27, label %28, label %.Vec_PtrGrow.exit11_crit_edge.i

.Vec_PtrGrow.exit11_crit_edge.i:                  ; preds = %18
  %.pre.i = load ptr, ptr %.phi.trans.insert.i, align 8, !tbaa !29
  br label %Vec_PtrPush.exit

28:                                               ; preds = %18
  %29 = icmp slt i32 %19, 16
  br i1 %29, label %30, label %37

30:                                               ; preds = %28
  %31 = load ptr, ptr %.phi.trans.insert.i, align 8, !tbaa !29
  %.not9.i.i = icmp eq ptr %31, null
  br i1 %.not9.i.i, label %34, label %32

32:                                               ; preds = %30
  %33 = tail call dereferenceable_or_null(128) ptr @realloc(ptr noundef nonnull %31, i64 noundef 128) #24
  br label %Vec_PtrGrow.exit.i

34:                                               ; preds = %30
  %35 = tail call noalias dereferenceable_or_null(128) ptr @malloc(i64 noundef 128) #22
  br label %Vec_PtrGrow.exit.i

Vec_PtrGrow.exit.i:                               ; preds = %34, %32
  %36 = phi ptr [ %33, %32 ], [ %35, %34 ]
  store ptr %36, ptr %.phi.trans.insert.i, align 8, !tbaa !29
  store i32 16, ptr %2, align 8, !tbaa !28
  br label %Vec_PtrPush.exit

37:                                               ; preds = %28
  %38 = shl nuw nsw i32 %19, 1
  %39 = load ptr, ptr %.phi.trans.insert.i, align 8, !tbaa !29
  %.not9.i10.i = icmp eq ptr %39, null
  %40 = zext nneg i32 %38 to i64
  %41 = shl nuw nsw i64 %40, 3
  br i1 %.not9.i10.i, label %44, label %42

42:                                               ; preds = %37
  %43 = tail call ptr @realloc(ptr noundef nonnull %39, i64 noundef %41) #24
  br label %46

44:                                               ; preds = %37
  %45 = tail call noalias ptr @malloc(i64 noundef %41) #22
  br label %46

46:                                               ; preds = %44, %42
  %47 = phi ptr [ %43, %42 ], [ %45, %44 ]
  store ptr %47, ptr %.phi.trans.insert.i, align 8, !tbaa !29
  store i32 %38, ptr %2, align 8, !tbaa !28
  br label %Vec_PtrPush.exit

Vec_PtrPush.exit:                                 ; preds = %.Vec_PtrGrow.exit11_crit_edge.i, %Vec_PtrGrow.exit.i, %46
  %48 = phi i32 [ %19, %.Vec_PtrGrow.exit11_crit_edge.i ], [ %38, %46 ], [ 16, %Vec_PtrGrow.exit.i ]
  %49 = phi ptr [ %.pre.i, %.Vec_PtrGrow.exit11_crit_edge.i ], [ %47, %46 ], [ %36, %Vec_PtrGrow.exit.i ]
  %50 = load i32, ptr %4, align 4, !tbaa !24
  %51 = add nsw i32 %50, 1
  store i32 %51, ptr %4, align 4, !tbaa !24
  %52 = sext i32 %50 to i64
  %53 = getelementptr inbounds ptr, ptr %49, i64 %52
  store ptr %26, ptr %53, align 8, !tbaa !46
  %indvars.iv.next = add nuw nsw i64 %indvars.iv, 1
  %54 = load ptr, ptr %13, align 8, !tbaa !27
  %55 = load i32, ptr %7, align 4, !tbaa !42
  %56 = sext i32 %55 to i64
  %57 = getelementptr inbounds i32, ptr %54, i64 %56
  %58 = load i32, ptr %57, align 4, !tbaa !44
  %59 = sext i32 %58 to i64
  %60 = icmp slt i64 %indvars.iv.next, %59
  br i1 %60, label %18, label %.loopexit, !llvm.loop !47

.loopexit:                                        ; preds = %Vec_PtrPush.exit, %.preheader, %3
  ret void
}